; Function Attrs: nounwind uwtable
define dso_local ptr @list_next(ptr noundef captures(none) %0) #0 {
  %2 = getelementptr inbounds nuw i8, ptr %0, i64 8
  %3 = load ptr, ptr %2, align 8
  %4 = getelementptr inbounds nuw i8, ptr %3, i64 40
  %5 = tail call i32 @pthread_rwlock_wrlock(ptr noundef nonnull %4) #9
  %.not = icmp eq i32 %5, 0
  br i1 %.not, label %8, label %6

6:                                                ; preds = %1
  %7 = tail call ptr @__errno_location() #10
  store i32 %5, ptr %7, align 4
  tail call void (ptr, ...) @fatal_abort(ptr noundef nonnull @.str.2, ptr noundef nonnull @__func__.list_next) #11
  unreachable

8:                                                ; preds = %1
  %9 = getelementptr inbounds nuw i8, ptr %0, i64 16
  %10 = load ptr, ptr %9, align 8
  %.not.i = icmp eq ptr %10, null
  br i1 %.not.i, label %14, label %11

11:                                               ; preds = %8
  %12 = getelementptr inbounds nuw i8, ptr %10, i64 8
  %13 = load ptr, ptr %12, align 8
  store ptr %13, ptr %9, align 8
  br label %14

14:                                               ; preds = %11, %8
  %15 = getelementptr inbounds nuw i8, ptr %0, i64 24
  %16 = load ptr, ptr %15, align 8
  %17 = load ptr, ptr %16, align 8
  %.not10.i = icmp eq ptr %17, %10
  br i1 %.not10.i, label %20, label %18

18:                                               ; preds = %14
  %19 = getelementptr inbounds nuw i8, ptr %17, i64 8
  store ptr %19, ptr %15, align 8
  br label %20

20:                                               ; preds = %18, %14
  br i1 %.not.i, label %_list_next_locked.exit, label %21

21:                                               ; preds = %20
  %22 = load ptr, ptr %10, align 8
  br label %_list_next_locked.exit

_list_next_locked.exit:                           ; preds = %20, %21
  %23 = phi ptr [ %22, %21 ], [ null, %20 ]
  %24 = load ptr, ptr %2, align 8
  %25 = getelementptr inbounds nuw i8, ptr %24, i64 40
  %26 = tail call i32 @pthread_rwlock_unlock(ptr noundef nonnull %25) #9
  %.not8 = icmp eq i32 %26, 0
  br i1 %.not8, label %29, label %27

27:                                               ; preds = %_list_next_locked.exit
  %28 = tail call ptr @__errno_location() #10
  store i32 %26, ptr %28, align 4
  tail call void (ptr, ...) @fatal_abort(ptr noundef nonnull @.str.3, ptr noundef nonnull @__func__.list_next) #11
  unreachable

29:                                               ; preds = %_list_next_locked.exit
  ret ptr %23
}